; ModuleID = '28/1340.c'
source_filename = "28/1340.c"
target datalayout = "e-m:e-p270:32:32-p271:32:32-p272:64:64-i64:64-f80:128-n8:16:32:64-S128"
target triple = "x86_64-pc-linux-gnu"

@.str = private unnamed_addr constant [4 x i8] c"%d,\00", align 1
@.str.1 = private unnamed_addr constant [3 x i8] c"%d\00", align 1

; Function Attrs: noinline nounwind uwtable
define dso_local void @main() #0 {
  %1 = alloca [300 x i8], align 16
  %2 = alloca i32, align 4
  %3 = alloca i32, align 4
  store i32 0, i32* %2, align 4
  store i32 0, i32* %3, align 4
  br label %4

4:                                                ; preds = %0, %32
  %5 = call i32 @getchar()
  store i32 %5, i32* %3, align 4
  %6 = load i32, i32* %3, align 4
  %7 = icmp eq i32 %6, 32
  br i1 %7, label %8, label %15

8:                                                ; preds = %4
  %9 = load i32, i32* %2, align 4
  %10 = icmp ne i32 %9, 0
  br i1 %10, label %11, label %14

11:                                               ; preds = %8
  %12 = load i32, i32* %2, align 4
  %13 = call i32 (i8*, ...) @printf(i8* getelementptr inbounds ([4 x i8], [4 x i8]* @.str, i64 0, i64 0), i32 %12)
  store i32 0, i32* %2, align 4
  br label %14

14:                                               ; preds = %11, %8
  br label %32

15:                                               ; preds = %4
  %16 = load i32, i32* %3, align 4
  %17 = icmp ne i32 %16, 0
  br i1 %17, label %18, label %24

18:                                               ; preds = %15
  %19 = load i32, i32* %3, align 4
  %20 = icmp ne i32 %19, 10
  br i1 %20, label %21, label %24

21:                                               ; preds = %18
  %22 = load i32, i32* %2, align 4
  %23 = add nsw i32 %22, 1
  store i32 %23, i32* %2, align 4
  br label %31

24:                                               ; preds = %18, %15
  %25 = load i32, i32* %3, align 4
  %26 = icmp eq i32 %25, 10
  br i1 %26, label %27, label %30

27:                                               ; preds = %24
  %28 = load i32, i32* %2, align 4
  %29 = call i32 (i8*, ...) @printf(i8* getelementptr inbounds ([3 x i8], [3 x i8]* @.str.1, i64 0, i64 0), i32 %28)
  br label %33

30:                                               ; preds = %24
  br label %31

31:                                               ; preds = %30, %21
  br label %32

32:                                               ; preds = %31, %14
  br label %4

33:                                               ; preds = %27
  ret void
}

declare dso_local i32 @getchar() #1

declare dso_local i32 @printf(i8*, ...) #1


!llvm.module.flags = !{!0}
!llvm.ident = !{!1}

!0 = !{i32 1, !"wchar_size", i32 4}
!1 = !{!"clang version 10.0.0-4ubuntu1 "}
